; Function Attrs: nounwind uwtable
define internal range(i32 0, 2) i32 @xor_gen_set_params(ptr noundef readnone captures(address_is_null) %0, ptr noundef %1) #0 {
  %3 = icmp eq ptr %0, null
  br i1 %3, label %16, label %4

4:                                                ; preds = %2
  %5 = tail call ptr @OSSL_PARAM_locate_const(ptr noundef %1, ptr noundef nonnull @.str.11) #16
  %.not = icmp eq ptr %5, null
  br i1 %.not, label %15, label %6

6:                                                ; preds = %4
  %7 = getelementptr inbounds nuw i8, ptr %5, i64 8
  %8 = load i32, ptr %7, align 8, !tbaa !38
  %.not8 = icmp eq i32 %8, 4
  br i1 %.not8, label %9, label %16

9:                                                ; preds = %6
  %10 = getelementptr inbounds nuw i8, ptr %5, i64 16
  %11 = load ptr, ptr %10, align 8, !tbaa !28
  %12 = tail call i32 @strcmp(ptr noundef nonnull dereferenceable(1) %11, ptr noundef nonnull dereferenceable(13) @.str.12) #17
  %.not9 = icmp eq i32 %12, 0
  br i1 %.not9, label %15, label %13

13:                                               ; preds = %9
  %14 = tail call i32 @strcmp(ptr noundef nonnull dereferenceable(1) %11, ptr noundef nonnull dereferenceable(16) @.str.13) #17
  %.not10 = icmp eq i32 %14, 0
  br i1 %.not10, label %15, label %16

15:                                               ; preds = %9, %13, %4
  br label %16

16:                                               ; preds = %6, %13, %2, %15
  %.0 = phi i32 [ 1, %15 ], [ 0, %2 ], [ 0, %13 ], [ 0, %6 ]
  ret i32 %.0
}